
build/data:     file format elf64-littleriscv


Disassembly of section .text:

0000000052020000 <_start>:
    52020000:	00001397          	auipc	t2,0x1
    52020004:	1c838393          	addi	t2,t2,456 # 520211c8 <__BSS_END__>
    52020008:	00001317          	auipc	t1,0x1
    5202000c:	1c030313          	addi	t1,t1,448 # 520211c8 <__BSS_END__>

0000000052020010 <crt0_loop>:
    52020010:	00734663          	blt	t1,t2,5202001c <crt0_endloop>
    52020014:	00038023          	sb	zero,0(t2)
    52020018:	0385                	addi	t2,t2,1
    5202001a:	bfdd                	j	52020010 <crt0_loop>

000000005202001c <crt0_endloop>:
    5202001c:	00000393          	li	t2,0
    52020020:	00000313          	li	t1,0
    52020024:	830a                	mv	t1,sp
    52020026:	00000117          	auipc	sp,0x0
    5202002a:	fda10113          	addi	sp,sp,-38 # 52020000 <_start>
    5202002e:	6ec1                	lui	t4,0x10
    52020030:	9176                	add	sp,sp,t4
    52020032:	1161                	addi	sp,sp,-8
    52020034:	1101                	addi	sp,sp,-32
    52020036:	e01a                	sd	t1,0(sp)
    52020038:	e406                	sd	ra,8(sp)
    5202003a:	09a000ef          	jal	ra,520200d4 <main>
    5202003e:	60a2                	ld	ra,8(sp)
    52020040:	6102                	ld	sp,0(sp)
    52020042:	8082                	ret

0000000052020044 <loop>:
    52020044:	10500073          	wfi
    52020048:	bff5                	j	52020044 <loop>

000000005202004a <call_jmptab>:
    5202004a:	715d                	addi	sp,sp,-80
    5202004c:	e486                	sd	ra,72(sp)
    5202004e:	e0a2                	sd	s0,64(sp)
    52020050:	0880                	addi	s0,sp,80
    52020052:	fca43c23          	sd	a0,-40(s0)
    52020056:	fcb43823          	sd	a1,-48(s0)
    5202005a:	fcc43423          	sd	a2,-56(s0)
    5202005e:	fcd43023          	sd	a3,-64(s0)
    52020062:	fae43c23          	sd	a4,-72(s0)
    52020066:	faf43823          	sd	a5,-80(s0)
    5202006a:	fd843703          	ld	a4,-40(s0)
    5202006e:	0a4007b7          	lui	a5,0xa400
    52020072:	1781                	addi	a5,a5,-32
    52020074:	97ba                	add	a5,a5,a4
    52020076:	078e                	slli	a5,a5,0x3
    52020078:	639c                	ld	a5,0(a5)
    5202007a:	fef43423          	sd	a5,-24(s0)
    5202007e:	fe843783          	ld	a5,-24(s0)
    52020082:	fef43023          	sd	a5,-32(s0)
    52020086:	fe043783          	ld	a5,-32(s0)
    5202008a:	fb043703          	ld	a4,-80(s0)
    5202008e:	fb843683          	ld	a3,-72(s0)
    52020092:	fc043603          	ld	a2,-64(s0)
    52020096:	fc843583          	ld	a1,-56(s0)
    5202009a:	fd043503          	ld	a0,-48(s0)
    5202009e:	9782                	jalr	a5
    520200a0:	87aa                	mv	a5,a0
    520200a2:	853e                	mv	a0,a5
    520200a4:	60a6                	ld	ra,72(sp)
    520200a6:	6406                	ld	s0,64(sp)
    520200a8:	6161                	addi	sp,sp,80
    520200aa:	8082                	ret

00000000520200ac <bios_putstr>:
    520200ac:	1101                	addi	sp,sp,-32
    520200ae:	ec06                	sd	ra,24(sp)
    520200b0:	e822                	sd	s0,16(sp)
    520200b2:	1000                	addi	s0,sp,32
    520200b4:	fea43423          	sd	a0,-24(s0)
    520200b8:	fe843583          	ld	a1,-24(s0)
    520200bc:	4781                	li	a5,0
    520200be:	4701                	li	a4,0
    520200c0:	4681                	li	a3,0
    520200c2:	4601                	li	a2,0
    520200c4:	4501                	li	a0,0
    520200c6:	f85ff0ef          	jal	ra,5202004a <call_jmptab>
    520200ca:	0001                	nop
    520200cc:	60e2                	ld	ra,24(sp)
    520200ce:	6442                	ld	s0,16(sp)
    520200d0:	6105                	addi	sp,sp,32
    520200d2:	8082                	ret

00000000520200d4 <main>:
    520200d4:	1101                	addi	sp,sp,-32
    520200d6:	ec06                	sd	ra,24(sp)
    520200d8:	e822                	sd	s0,16(sp)
    520200da:	1000                	addi	s0,sp,32
    520200dc:	00000517          	auipc	a0,0x0
    520200e0:	07c50513          	addi	a0,a0,124 # 52020158 <main+0x84>
    520200e4:	fc9ff0ef          	jal	ra,520200ac <bios_putstr>
    520200e8:	40000793          	li	a5,1024
    520200ec:	fef42423          	sw	a5,-24(s0)
    520200f0:	fe042623          	sw	zero,-20(s0)
    520200f4:	a81d                	j	5202012a <main+0x56>
    520200f6:	00000717          	auipc	a4,0x0
    520200fa:	0d270713          	addi	a4,a4,210 # 520201c8 <data>
    520200fe:	fec42783          	lw	a5,-20(s0)
    52020102:	078a                	slli	a5,a5,0x2
    52020104:	97ba                	add	a5,a5,a4
    52020106:	4398                	lw	a4,0(a5)
    52020108:	fec42783          	lw	a5,-20(s0)
    5202010c:	2781                	sext.w	a5,a5
    5202010e:	00e78963          	beq	a5,a4,52020120 <main+0x4c>
    52020112:	00000517          	auipc	a0,0x0
    52020116:	06650513          	addi	a0,a0,102 # 52020178 <main+0xa4>
    5202011a:	f93ff0ef          	jal	ra,520200ac <bios_putstr>
    5202011e:	a001                	j	5202011e <main+0x4a>
    52020120:	fec42783          	lw	a5,-20(s0)
    52020124:	2785                	addiw	a5,a5,1
    52020126:	fef42623          	sw	a5,-20(s0)
    5202012a:	fec42703          	lw	a4,-20(s0)
    5202012e:	fe842783          	lw	a5,-24(s0)
    52020132:	2701                	sext.w	a4,a4
    52020134:	2781                	sext.w	a5,a5
    52020136:	fcf740e3          	blt	a4,a5,520200f6 <main+0x22>
    5202013a:	00000517          	auipc	a0,0x0
    5202013e:	06650513          	addi	a0,a0,102 # 520201a0 <main+0xcc>
    52020142:	f6bff0ef          	jal	ra,520200ac <bios_putstr>
    52020146:	4781                	li	a5,0
    52020148:	853e                	mv	a0,a5
    5202014a:	60e2                	ld	ra,24(sp)
    5202014c:	6442                	ld	s0,16(sp)
    5202014e:	6105                	addi	sp,sp,32
    52020150:	8082                	ret
